target datalayout = "e-m:e-p270:32:32-p271:32:32-p272:64:64-i64:64-i128:128-f80:128-n8:16:32:64-S128"
target triple = "x86_64-pc-linux-gnu"

%"struct.cv::utils::trace::details::Region::LocationStaticStorage" = type { ptr, ptr, ptr, i32, i32 }
%"class.cv::utils::trace::details::Region" = type <{ ptr, i32, [4 x i8] }>

@_ZZN2cv19getConvertScaleFuncEiiE24__cv_trace_location_fn24 = internal constant %"struct.cv::utils::trace::details::Region::LocationStaticStorage" { ptr @_ZZN2cv19getConvertScaleFuncEiiE30__cv_trace_location_extra_fn24, ptr @.str, ptr @.str.1, i32 24, i32 1 }, align 8

; Function Attrs: inlinehint mustprogress nounwind uwtable
define linkonce_odr hidden void @_ZN2cv5utils5trace7details6RegionD2Ev(ptr noundef nonnull align 8 dereferenceable(12) %0) unnamed_addr #4 comdat align 2 personality ptr @__gxx_personality_v0 {
  %2 = alloca ptr, align 8
  store ptr %0, ptr %2, align 8, !tbaa !26
  %3 = load ptr, ptr %2, align 8
  %4 = getelementptr inbounds nuw %"class.cv::utils::trace::details::Region", ptr %3, i32 0, i32 1
  %5 = load i32, ptr %4, align 8, !tbaa !28
  %6 = icmp ne i32 %5, 0
  br i1 %6, label %7, label %9

7:                                                ; preds = %1
  invoke void @_ZN2cv5utils5trace7details6Region7destroyEv(ptr noundef nonnull align 8 dereferenceable(12) %3)
          to label %8 unwind label %10

8:                                                ; preds = %7
  br label %9

9:                                                ; preds = %8, %1
  ret void

10:                                               ; preds = %7
  %11 = landingpad { ptr, i32 }
          catch ptr null
  %12 = extractvalue { ptr, i32 } %11, 0
  call void @__clang_call_terminate(ptr %12) #18
  unreachable
}

; Function Attrs: mustprogress nounwind uwtable
define hidden noundef ptr @_ZN2cv12cpu_baseline19getConvertScaleFuncEii(i32 noundef %0, i32 noundef %1) #0 {
  %3 = alloca i32, align 4
  %4 = alloca i32, align 4
  store i32 %0, ptr %3, align 4, !tbaa !3
  store i32 %1, ptr %4, align 4, !tbaa !3
  %5 = load i32, ptr %4, align 4, !tbaa !3
  %6 = and i32 %5, 7
  %7 = sext i32 %6 to i64
  %8 = getelementptr inbounds [8 x [8 x ptr]], ptr @_ZZN2cv12cpu_baseline19getConvertScaleFuncEiiE11cvtScaleTab, i64 0, i64 %7
  %9 = load i32, ptr %3, align 4, !tbaa !3
  %10 = and i32 %9, 7
  %11 = sext i32 %10 to i64
  %12 = getelementptr inbounds [8 x ptr], ptr %8, i64 0, i64 %11
  %13 = load ptr, ptr %12, align 8, !tbaa !7
  ret ptr %13
}

; Function Attrs: mustprogress uwtable
define hidden noundef ptr @_ZN2cv19getConvertScaleFuncEii(i32 noundef %0, i32 noundef %1) #1 {
  %3 = alloca i32, align 4
  %4 = alloca i32, align 4
  %5 = alloca %"class.cv::utils::trace::details::Region", align 8
  store i32 %0, ptr %3, align 4, !tbaa !3
  store i32 %1, ptr %4, align 4, !tbaa !3
  call void @llvm.lifetime.start.p0(i64 16, ptr %5) #17
  call void @_ZN2cv5utils5trace7details6RegionC1ERKNS3_21LocationStaticStorageE(ptr noundef nonnull align 8 dereferenceable(12) %5, ptr noundef nonnull align 8 dereferenceable(32) @_ZZN2cv19getConvertScaleFuncEiiE24__cv_trace_location_fn24)
  %6 = load i32, ptr %3, align 4, !tbaa !3
  %7 = load i32, ptr %4, align 4, !tbaa !3
  %8 = call noundef ptr @_ZN2cv12cpu_baseline19getConvertScaleFuncEii(i32 noundef %6, i32 noundef %7)
  call void @_ZN2cv5utils5trace7details6RegionD2Ev(ptr noundef nonnull align 8 dereferenceable(12) %5) #17
  call void @llvm.lifetime.end.p0(i64 16, ptr %5) #17
  ret ptr %8
}