; Function Attrs: mustprogress uwtable
define hidden noundef ptr @_ZN2cv19getConvertScaleFuncEii(i32 noundef %0, i32 noundef %1) local_unnamed_addr #3 personality ptr @__gxx_personality_v0 {
  %3 = alloca %"class.cv::utils::trace::details::Region", align 8
  call void @llvm.lifetime.start.p0(i64 16, ptr nonnull %3) #17
  call void @_ZN2cv5utils5trace7details6RegionC1ERKNS3_21LocationStaticStorageE(ptr noundef nonnull align 8 dereferenceable(12) %3, ptr noundef nonnull align 8 dereferenceable(32) @_ZZN2cv19getConvertScaleFuncEiiE24__cv_trace_location_fn24)
  %4 = and i32 %1, 7
  %5 = zext nneg i32 %4 to i64
  %6 = and i32 %0, 7
  %7 = zext nneg i32 %6 to i64
  %8 = getelementptr inbounds nuw [8 x [8 x ptr]], ptr @_ZZN2cv12cpu_baseline19getConvertScaleFuncEiiE11cvtScaleTab, i64 0, i64 %5, i64 %7
  %9 = load ptr, ptr %8, align 8, !tbaa !3
  %10 = getelementptr inbounds nuw i8, ptr %3, i64 8
  %11 = load i32, ptr %10, align 8, !tbaa !161
  %.not.i = icmp eq i32 %11, 0
  br i1 %.not.i, label %_ZN2cv5utils5trace7details6RegionD2Ev.exit, label %12

12:                                               ; preds = %2
  invoke void @_ZN2cv5utils5trace7details6Region7destroyEv(ptr noundef nonnull align 8 dereferenceable(12) %3)
          to label %_ZN2cv5utils5trace7details6RegionD2Ev.exit unwind label %13

13:                                               ; preds = %12
  %14 = landingpad { ptr, i32 }
          catch ptr null
  %15 = extractvalue { ptr, i32 } %14, 0
  call void @__clang_call_terminate(ptr %15) #18
  unreachable

_ZN2cv5utils5trace7details6RegionD2Ev.exit:       ; preds = %2, %12
  call void @llvm.lifetime.end.p0(i64 16, ptr nonnull %3) #17
  ret ptr %9
}